; Function Attrs: nofree norecurse nosync nounwind memory(readwrite, inaccessiblemem: none) uwtable
define internal void @SDL_Blit_RGBA8888_ARGB8888_Modulate(ptr noundef captures(none) %0) #0 {
  %2 = getelementptr inbounds nuw i8, ptr %0, i64 112
  %3 = load i32, ptr %2, align 8
  %4 = getelementptr inbounds nuw i8, ptr %0, i64 120
  %5 = load i8, ptr %4, align 8
  %6 = zext i8 %5 to i32
  %7 = getelementptr inbounds nuw i8, ptr %0, i64 121
  %8 = load i8, ptr %7, align 1
  %9 = zext i8 %8 to i32
  %10 = getelementptr inbounds nuw i8, ptr %0, i64 122
  %11 = load i8, ptr %10, align 2
  %12 = zext i8 %11 to i32
  %13 = getelementptr inbounds nuw i8, ptr %0, i64 123
  %14 = load i8, ptr %13, align 1
  %15 = zext i8 %14 to i32
  %16 = getelementptr inbounds nuw i8, ptr %0, i64 52
  %17 = load i32, ptr %16, align 4
  %18 = add nsw i32 %17, -1
  store i32 %18, ptr %16, align 4
  %.not64 = icmp eq i32 %17, 0
  br i1 %.not64, label %._crit_edge67, label %.lr.ph66

.lr.ph66:                                         ; preds = %1
  %19 = getelementptr inbounds nuw i8, ptr %0, i64 8
  %20 = getelementptr inbounds nuw i8, ptr %0, i64 40
  %21 = getelementptr inbounds nuw i8, ptr %0, i64 48
  %22 = and i32 %3, 1
  %.not59 = icmp eq i32 %22, 0
  %23 = and i32 %3, 2
  %.not60 = icmp eq i32 %23, 0
  %24 = getelementptr inbounds nuw i8, ptr %0, i64 24
  %25 = getelementptr inbounds nuw i8, ptr %0, i64 56
  %26 = load i32, ptr %21, align 8
  %27 = icmp eq i32 %26, 0
  br i1 %27, label %.lr.ph66.split.us, label %.lr.ph66.split.preheader

.lr.ph66.split.preheader:                         ; preds = %.lr.ph66
  %.pre = load ptr, ptr %19, align 8
  %.pre77 = load ptr, ptr %20, align 8
  br label %.lr.ph66.split

.lr.ph66.split.us:                                ; preds = %.lr.ph66
  %28 = load i32, ptr %24, align 8
  %29 = sext i32 %28 to i64
  %30 = load i32, ptr %25, align 8
  %31 = sext i32 %30 to i64
  %.promoted = load ptr, ptr %19, align 8
  %.promoted68 = load ptr, ptr %20, align 8
  %32 = zext i32 %17 to i64
  %33 = mul nsw i64 %32, %29
  %scevgep = getelementptr i8, ptr %.promoted, i64 %33
  %34 = mul nsw i64 %32, %31
  %scevgep76 = getelementptr i8, ptr %.promoted68, i64 %34
  store ptr %scevgep, ptr %19, align 8
  store ptr %scevgep76, ptr %20, align 8
  store i32 -1, ptr %16, align 4
  br label %._crit_edge67

.lr.ph66.splitthread-pre-split:                   ; preds = %._crit_edge
  %.pr = load i32, ptr %21, align 8
  br label %.lr.ph66.split

.lr.ph66.split:                                   ; preds = %.lr.ph66.splitthread-pre-split, %.lr.ph66.split.preheader
  %35 = phi i32 [ %.pr, %.lr.ph66.splitthread-pre-split ], [ %26, %.lr.ph66.split.preheader ]
  %36 = phi ptr [ %109, %.lr.ph66.splitthread-pre-split ], [ %.pre77, %.lr.ph66.split.preheader ]
  %37 = phi ptr [ %105, %.lr.ph66.splitthread-pre-split ], [ %.pre, %.lr.ph66.split.preheader ]
  %38 = add nsw i32 %35, -1
  %.not5861 = icmp eq i32 %35, 0
  br i1 %.not5861, label %._crit_edge, label %.lr.ph

.lr.ph:                                           ; preds = %.lr.ph66.split
  br i1 %.not59, label %.lr.ph.split.us, label %.lr.ph.split

.lr.ph.split.us:                                  ; preds = %.lr.ph
  br i1 %.not60, label %.lr.ph.split.us.split.us, label %.lr.ph.split.us.split

.lr.ph.split.us.split.us:                         ; preds = %.lr.ph.split.us, %.lr.ph.split.us.split.us
  %39 = phi i32 [ %44, %.lr.ph.split.us.split.us ], [ %38, %.lr.ph.split.us ]
  %.05563.us.us = phi ptr [ %43, %.lr.ph.split.us.split.us ], [ %36, %.lr.ph.split.us ]
  %.05662.us.us = phi ptr [ %42, %.lr.ph.split.us.split.us ], [ %37, %.lr.ph.split.us ]
  %40 = load i32, ptr %.05662.us.us, align 4
  %41 = tail call i32 @llvm.fshl.i32(i32 %40, i32 %40, i32 24)
  store i32 %41, ptr %.05563.us.us, align 4
  %42 = getelementptr inbounds nuw i8, ptr %.05662.us.us, i64 4
  %43 = getelementptr inbounds nuw i8, ptr %.05563.us.us, i64 4
  %44 = add nsw i32 %39, -1
  %.not58.us.us = icmp eq i32 %39, 0
  br i1 %.not58.us.us, label %._crit_edge, label %.lr.ph.split.us.split.us, !llvm.loop !207

.lr.ph.split.us.split:                            ; preds = %.lr.ph.split.us, %.lr.ph.split.us.split
  %45 = phi i32 [ %59, %.lr.ph.split.us.split ], [ %38, %.lr.ph.split.us ]
  %.05563.us = phi ptr [ %58, %.lr.ph.split.us.split ], [ %36, %.lr.ph.split.us ]
  %.05662.us = phi ptr [ %57, %.lr.ph.split.us.split ], [ %37, %.lr.ph.split.us ]
  %46 = load i32, ptr %.05662.us, align 4
  %47 = lshr i32 %46, 8
  %48 = and i32 %46, 255
  %49 = mul nuw nsw i32 %48, %15
  %50 = add nuw nsw i32 %49, 1
  %51 = lshr i32 %50, 8
  %52 = and i32 %51, 255
  %53 = add nuw nsw i32 %52, %50
  %54 = shl nuw i32 %53, 16
  %55 = and i32 %54, -16777216
  %56 = or disjoint i32 %55, %47
  store i32 %56, ptr %.05563.us, align 4
  %57 = getelementptr inbounds nuw i8, ptr %.05662.us, i64 4
  %58 = getelementptr inbounds nuw i8, ptr %.05563.us, i64 4
  %59 = add nsw i32 %45, -1
  %.not58.us = icmp eq i32 %45, 0
  br i1 %.not58.us, label %._crit_edge, label %.lr.ph.split.us.split, !llvm.loop !207

.lr.ph.split:                                     ; preds = %.lr.ph, %91
  %60 = phi i32 [ %101, %91 ], [ %38, %.lr.ph ]
  %.05563 = phi ptr [ %100, %91 ], [ %36, %.lr.ph ]
  %.05662 = phi ptr [ %99, %91 ], [ %37, %.lr.ph ]
  %61 = load i32, ptr %.05662, align 4
  %62 = lshr i32 %61, 24
  %63 = lshr i32 %61, 16
  %64 = and i32 %63, 255
  %65 = lshr i32 %61, 8
  %66 = and i32 %65, 255
  %67 = and i32 %61, 255
  %68 = mul nuw nsw i32 %62, %6
  %69 = add nuw nsw i32 %68, 1
  %70 = mul nuw nsw i32 %64, %9
  %71 = add nuw nsw i32 %70, 1
  %72 = lshr i32 %71, 8
  %73 = and i32 %72, 255
  %74 = add nuw nsw i32 %73, %71
  %75 = and i32 %74, 65280
  %76 = mul nuw nsw i32 %66, %12
  %77 = add nuw nsw i32 %76, 1
  %78 = lshr i32 %77, 8
  %79 = and i32 %78, 255
  %80 = add nuw nsw i32 %79, %77
  %81 = lshr i32 %80, 8
  %82 = and i32 %81, 255
  br i1 %.not60, label %91, label %83

83:                                               ; preds = %.lr.ph.split
  %84 = mul nuw nsw i32 %67, %15
  %85 = add nuw nsw i32 %84, 1
  %86 = lshr i32 %85, 8
  %87 = and i32 %86, 255
  %88 = add nuw nsw i32 %87, %85
  %89 = lshr i32 %88, 8
  %90 = and i32 %89, 255
  br label %91

91:                                               ; preds = %83, %.lr.ph.split
  %.057 = phi i32 [ %90, %83 ], [ %67, %.lr.ph.split ]
  %92 = shl nuw i32 %.057, 24
  %93 = shl nuw nsw i32 %69, 8
  %.mask = and i32 %69, 65280
  %94 = add nuw nsw i32 %.mask, %93
  %95 = and i32 %94, 16711680
  %96 = or disjoint i32 %92, %95
  %97 = or disjoint i32 %96, %75
  %98 = or disjoint i32 %97, %82
  store i32 %98, ptr %.05563, align 4
  %99 = getelementptr inbounds nuw i8, ptr %.05662, i64 4
  %100 = getelementptr inbounds nuw i8, ptr %.05563, i64 4
  %101 = add nsw i32 %60, -1
  %.not58 = icmp eq i32 %60, 0
  br i1 %.not58, label %._crit_edge, label %.lr.ph.split, !llvm.loop !207

._crit_edge:                                      ; preds = %91, %.lr.ph.split.us.split, %.lr.ph.split.us.split.us, %.lr.ph66.split
  %102 = load i32, ptr %24, align 8
  %103 = load ptr, ptr %19, align 8
  %104 = sext i32 %102 to i64
  %105 = getelementptr inbounds i8, ptr %103, i64 %104
  store ptr %105, ptr %19, align 8
  %106 = load i32, ptr %25, align 8
  %107 = load ptr, ptr %20, align 8
  %108 = sext i32 %106 to i64
  %109 = getelementptr inbounds i8, ptr %107, i64 %108
  store ptr %109, ptr %20, align 8
  %110 = load i32, ptr %16, align 4
  %111 = add nsw i32 %110, -1
  store i32 %111, ptr %16, align 4
  %.not = icmp eq i32 %110, 0
  br i1 %.not, label %._crit_edge67, label %.lr.ph66.splitthread-pre-split, !llvm.loop !208

._crit_edge67:                                    ; preds = %._crit_edge, %.lr.ph66.split.us, %1
  ret void
}